; Function Attrs: mustprogress nounwind uwtable
define internal fastcc void @_ZL26stbi__free_jpeg_componentsP10stbi__jpegii(ptr noundef nonnull captures(none) %0, i32 noundef %1) unnamed_addr #12 {
  %3 = icmp sgt i32 %1, 0
  br i1 %3, label %.lr.ph, label %._crit_edge

.lr.ph:                                           ; preds = %2
  %4 = getelementptr inbounds nuw i8, ptr %0, i64 18080
  %wide.trip.count = zext nneg i32 %1 to i64
  br label %5

5:                                                ; preds = %.lr.ph, %20
  %indvars.iv = phi i64 [ 0, %.lr.ph ], [ %indvars.iv.next, %20 ]
  %6 = getelementptr inbounds nuw [4 x %struct.anon], ptr %4, i64 0, i64 %indvars.iv
  %7 = getelementptr inbounds nuw i8, ptr %6, i64 56
  %8 = load ptr, ptr %7, align 8, !tbaa !152
  %.not = icmp eq ptr %8, null
  br i1 %.not, label %11, label %9

9:                                                ; preds = %5
  tail call void @free(ptr noundef nonnull %8) #40
  %10 = getelementptr inbounds nuw i8, ptr %6, i64 48
  tail call void @llvm.memset.p0.i64(ptr noundef nonnull align 8 dereferenceable(16) %10, i8 0, i64 16, i1 false)
  br label %11

11:                                               ; preds = %9, %5
  %12 = getelementptr inbounds nuw i8, ptr %6, i64 64
  %13 = load ptr, ptr %12, align 8, !tbaa !153
  %.not28 = icmp eq ptr %13, null
  br i1 %.not28, label %16, label %14

14:                                               ; preds = %11
  tail call void @free(ptr noundef nonnull %13) #40
  store ptr null, ptr %12, align 8, !tbaa !153
  %15 = getelementptr inbounds nuw i8, ptr %6, i64 80
  store ptr null, ptr %15, align 8, !tbaa !133
  br label %16

16:                                               ; preds = %14, %11
  %17 = getelementptr inbounds nuw i8, ptr %6, i64 72
  %18 = load ptr, ptr %17, align 8, !tbaa !154
  %.not29 = icmp eq ptr %18, null
  br i1 %.not29, label %20, label %19

19:                                               ; preds = %16
  tail call void @free(ptr noundef nonnull %18) #40
  store ptr null, ptr %17, align 8, !tbaa !154
  br label %20

20:                                               ; preds = %16, %19
  %indvars.iv.next = add nuw nsw i64 %indvars.iv, 1
  %exitcond.not = icmp eq i64 %indvars.iv.next, %wide.trip.count
  br i1 %exitcond.not, label %._crit_edge, label %5, !llvm.loop !155

._crit_edge:                                      ; preds = %20, %2
  ret void
}